target datalayout = "e-m:e-p270:32:32-p271:32:32-p272:64:64-i64:64-i128:128-f80:128-n8:16:32:64-S128"
target triple = "x86_64-unknown-linux-gnu"

%"class.zmq::zmtp_engine_t" = type <{ %"class.zmq::stream_engine_base_t.base", [7 x i8], %"class.zmq::msg_t", %"class.zmq::msg_t", i64, [64 x i8], [64 x i8], i32, i8, [3 x i8], i32, [4 x i8] }>
%"class.zmq::stream_engine_base_t.base" = type <{ %"class.zmq::io_object_t", %"struct.zmq::i_engine", %"struct.zmq::options_t", ptr, i64, ptr, ptr, i64, ptr, ptr, { i64, i64 }, { i64, i64 }, ptr, i8, i8, [6 x i8], %"struct.zmq::endpoint_uri_pair_t", i8, i8, i8, i8, [4 x i8], %"class.std::__cxx11::basic_string", i32, [4 x i8], ptr, i8, i8, [6 x i8], %"class.zmq::msg_t", i8, [7 x i8], ptr, ptr, i8 }>
%"class.zmq::io_object_t" = type { %"struct.zmq::i_poll_events", ptr }
%"struct.zmq::i_poll_events" = type { ptr }
%"struct.zmq::i_engine" = type { ptr }
%"struct.zmq::options_t" = type { i32, i32, i64, i8, [256 x i8], i32, i32, i32, i32, i32, i32, i32, i32, i8, %"struct.zmq::atomic_value_t", i32, i32, i32, i32, i32, i32, i64, i32, i32, i8, i32, i8, i8, i8, i8, i8, %"class.std::__cxx11::basic_string", %"class.std::__cxx11::basic_string", %"class.std::__cxx11::basic_string", i32, i32, i32, i32, %"class.std::vector", %"class.std::set", %"class.std::set", %"class.std::set.6", i32, i32, %"class.std::__cxx11::basic_string", %"class.std::__cxx11::basic_string", %"class.std::__cxx11::basic_string", [32 x i8], [32 x i8], [32 x i8], %"class.std::__cxx11::basic_string", %"class.std::__cxx11::basic_string", i32, i32, i8, i32, i8, i32, i8, i16, i32, i32, i32, %"class.std::__cxx11::basic_string", i8, i8, i8, i32, i32, i8, i32, %"class.std::map", i32, %"class.std::__cxx11::basic_string", %"class.std::__cxx11::basic_string", %"class.std::__cxx11::basic_string", %"class.std::__cxx11::basic_string", i8, %"class.std::vector.21", i8, %"class.std::vector.21", i8, %"class.std::vector.21", i8, i32, i8, i32, i32, i32, i32, i32, i8, i32 }
%"struct.zmq::atomic_value_t" = type { %"struct.std::atomic" }
%"struct.std::atomic" = type { %"struct.std::__atomic_base" }
%"struct.std::__atomic_base" = type { i32 }
%"class.std::vector" = type { %"struct.std::_Vector_base" }
%"struct.std::_Vector_base" = type { %"struct.std::_Vector_base<zmq::tcp_address_mask_t, std::allocator<zmq::tcp_address_mask_t>>::_Vector_impl" }
%"struct.std::_Vector_base<zmq::tcp_address_mask_t, std::allocator<zmq::tcp_address_mask_t>>::_Vector_impl" = type { %"struct.std::_Vector_base<zmq::tcp_address_mask_t, std::allocator<zmq::tcp_address_mask_t>>::_Vector_impl_data" }
%"struct.std::_Vector_base<zmq::tcp_address_mask_t, std::allocator<zmq::tcp_address_mask_t>>::_Vector_impl_data" = type { ptr, ptr, ptr }
%"class.std::set" = type { %"class.std::_Rb_tree" }
%"class.std::_Rb_tree" = type { %"struct.std::_Rb_tree<unsigned int, unsigned int, std::_Identity<unsigned int>, std::less<unsigned int>>::_Rb_tree_impl" }
%"struct.std::_Rb_tree<unsigned int, unsigned int, std::_Identity<unsigned int>, std::less<unsigned int>>::_Rb_tree_impl" = type { %"struct.std::_Rb_tree_key_compare", %"struct.std::_Rb_tree_header" }
%"struct.std::_Rb_tree_key_compare" = type { %"struct.std::less" }
%"struct.std::less" = type { i8 }
%"struct.std::_Rb_tree_header" = type { %"struct.std::_Rb_tree_node_base", i64 }
%"struct.std::_Rb_tree_node_base" = type { i32, ptr, ptr, ptr }
%"class.std::set.6" = type { %"class.std::_Rb_tree.7" }
%"class.std::_Rb_tree.7" = type { %"struct.std::_Rb_tree<int, int, std::_Identity<int>, std::less<int>>::_Rb_tree_impl" }
%"struct.std::_Rb_tree<int, int, std::_Identity<int>, std::less<int>>::_Rb_tree_impl" = type { %"struct.std::_Rb_tree_key_compare.11", %"struct.std::_Rb_tree_header" }
%"struct.std::_Rb_tree_key_compare.11" = type { %"struct.std::less.12" }
%"struct.std::less.12" = type { i8 }
%"class.std::map" = type { %"class.std::_Rb_tree.14" }
%"class.std::_Rb_tree.14" = type { %"struct.std::_Rb_tree<std::__cxx11::basic_string<char>, std::pair<const std::__cxx11::basic_string<char>, std::__cxx11::basic_string<char>>, std::_Select1st<std::pair<const std::__cxx11::basic_string<char>, std::__cxx11::basic_string<char>>>, std::less<std::__cxx11::basic_string<char>>>::_Rb_tree_impl" }
%"struct.std::_Rb_tree<std::__cxx11::basic_string<char>, std::pair<const std::__cxx11::basic_string<char>, std::__cxx11::basic_string<char>>, std::_Select1st<std::pair<const std::__cxx11::basic_string<char>, std::__cxx11::basic_string<char>>>, std::less<std::__cxx11::basic_string<char>>>::_Rb_tree_impl" = type { %"struct.std::_Rb_tree_key_compare.18", %"struct.std::_Rb_tree_header" }
%"struct.std::_Rb_tree_key_compare.18" = type { %"struct.std::less.19" }
%"struct.std::less.19" = type { i8 }
%"class.std::vector.21" = type { %"struct.std::_Vector_base.22" }
%"struct.std::_Vector_base.22" = type { %"struct.std::_Vector_base<unsigned char, std::allocator<unsigned char>>::_Vector_impl" }
%"struct.std::_Vector_base<unsigned char, std::allocator<unsigned char>>::_Vector_impl" = type { %"struct.std::_Vector_base<unsigned char, std::allocator<unsigned char>>::_Vector_impl_data" }
%"struct.std::_Vector_base<unsigned char, std::allocator<unsigned char>>::_Vector_impl_data" = type { ptr, ptr, ptr }
%"struct.zmq::endpoint_uri_pair_t" = type <{ %"class.std::__cxx11::basic_string", %"class.std::__cxx11::basic_string", i32, [4 x i8] }>
%"class.std::__cxx11::basic_string" = type { %"struct.std::__cxx11::basic_string<char>::_Alloc_hider", i64, %union.anon }
%"struct.std::__cxx11::basic_string<char>::_Alloc_hider" = type { ptr }
%union.anon = type { i64, [8 x i8] }
%"class.zmq::msg_t" = type { %union.anon.26 }
%union.anon.26 = type { %struct.anon }
%struct.anon = type { ptr, [34 x i8], i8, i8, i32, %"union.zmq::msg_t::group_t" }
%"union.zmq::msg_t::group_t" = type { %struct.anon.28 }
%struct.anon.28 = type { i8, ptr }

@stderr = external global ptr, align 8
@.str = private unnamed_addr constant [12 x i8] c"%s (%s:%d)\0A\00", align 1
@.str.1 = private unnamed_addr constant [111 x i8] c"generated/home/dtcxzyw/WorkSpace/Projects/compilers/llvm-opt-benchmark/bench/libzmq/libzmq/src/zmtp_engine.cpp\00", align 1

; Function Attrs: mustprogress nounwind uwtable
define void @_ZN3zmq13zmtp_engine_tD2Ev(ptr noundef nonnull align 8 dereferenceable(1976) %this) unnamed_addr #4 align 2 personality ptr @__gxx_personality_v0 {
entry:
  %this.addr = alloca ptr, align 8
  %rc = alloca i32, align 4
  %errstr = alloca ptr, align 8
  store ptr %this, ptr %this.addr, align 8
  %this1 = load ptr, ptr %this.addr, align 8
  %_routing_id_msg = getelementptr inbounds %"class.zmq::zmtp_engine_t", ptr %this1, i32 0, i32 2
  %call = invoke noundef i32 @_ZN3zmq5msg_t5closeEv(ptr noundef nonnull align 8 dereferenceable(64) %_routing_id_msg)
          to label %invoke.cont unwind label %terminate.lpad

invoke.cont:                                      ; preds = %entry
  store i32 %call, ptr %rc, align 4
  br label %do.body

do.body:                                          ; preds = %invoke.cont
  %0 = load i32, ptr %rc, align 4
  %cmp = icmp eq i32 %0, 0
  %lnot = xor i1 %cmp, true
  br i1 %lnot, label %if.then, label %if.end

if.then:                                          ; preds = %do.body
  %call2 = call ptr @__errno_location() #13
  %1 = load i32, ptr %call2, align 4
  %call3 = call ptr @strerror(i32 noundef %1) #14
  store ptr %call3, ptr %errstr, align 8
  %2 = load ptr, ptr @stderr, align 8
  %3 = load ptr, ptr %errstr, align 8
  %call5 = invoke i32 (ptr, ptr, ...) @fprintf(ptr noundef %2, ptr noundef @.str, ptr noundef %3, ptr noundef @.str.1, i32 noundef 70)
          to label %invoke.cont4 unwind label %terminate.lpad

invoke.cont4:                                     ; preds = %if.then
  %4 = load ptr, ptr @stderr, align 8
  %call7 = invoke i32 @fflush(ptr noundef %4)
          to label %invoke.cont6 unwind label %terminate.lpad

invoke.cont6:                                     ; preds = %invoke.cont4
  %5 = load ptr, ptr %errstr, align 8
  invoke void @_ZN3zmq9zmq_abortEPKc(ptr noundef %5)
          to label %invoke.cont8 unwind label %terminate.lpad

invoke.cont8:                                     ; preds = %invoke.cont6
  br label %if.end

if.end:                                           ; preds = %invoke.cont8, %do.body
  br label %do.cond

do.cond:                                          ; preds = %if.end
  br label %do.end

do.end:                                           ; preds = %do.cond
  call void @_ZN3zmq20stream_engine_base_tD2Ev(ptr noundef nonnull align 8 dereferenceable(1689) %this1) #14
  ret void

terminate.lpad:                                   ; preds = %invoke.cont6, %invoke.cont4, %if.then, %entry
  %6 = landingpad { ptr, i32 }
          catch ptr null
  %7 = extractvalue { ptr, i32 } %6, 0
  call void @__clang_call_terminate(ptr %7) #15
  unreachable
}