; Function Attrs: mustprogress nounwind uwtable
define void @_ZN3zmq13zmtp_engine_tD2Ev(ptr noundef nonnull align 8 dereferenceable(1976) %this) unnamed_addr #5 align 2 personality ptr @__gxx_personality_v0 {
entry:
  %_routing_id_msg = getelementptr inbounds i8, ptr %this, i64 1696
  %call = invoke noundef i32 @_ZN3zmq5msg_t5closeEv(ptr noundef nonnull align 8 dereferenceable(64) %_routing_id_msg)
          to label %invoke.cont unwind label %terminate.lpad

invoke.cont:                                      ; preds = %entry
  %cmp.not = icmp eq i32 %call, 0
  br i1 %cmp.not, label %do.end, label %if.then

if.then:                                          ; preds = %invoke.cont
  %call2 = tail call ptr @__errno_location() #16
  %0 = load i32, ptr %call2, align 4
  %call3 = tail call ptr @strerror(i32 noundef %0) #17
  %1 = load ptr, ptr @stderr, align 8
  %call5 = tail call i32 (ptr, ptr, ...) @fprintf(ptr noundef %1, ptr noundef nonnull @.str, ptr noundef %call3, ptr noundef nonnull @.str.1, i32 noundef 70) #18
  %2 = load ptr, ptr @stderr, align 8
  %call7 = tail call i32 @fflush(ptr noundef %2)
  invoke void @_ZN3zmq9zmq_abortEPKc(ptr noundef %call3)
          to label %do.end unwind label %terminate.lpad

do.end:                                           ; preds = %if.then, %invoke.cont
  tail call void @_ZN3zmq20stream_engine_base_tD2Ev(ptr noundef nonnull align 8 dereferenceable(1689) %this) #17
  ret void

terminate.lpad:                                   ; preds = %if.then, %entry
  %3 = landingpad { ptr, i32 }
          catch ptr null
  %4 = extractvalue { ptr, i32 } %3, 0
  tail call void @__clang_call_terminate(ptr %4) #19
  unreachable
}